target datalayout = "e-m:e-p270:32:32-p271:32:32-p272:64:64-i64:64-i128:128-f80:128-n8:16:32:64-S128"
target triple = "x86_64-pc-linux-gnu"

%struct.ident_t = type { i32, i32, i32, i32, ptr }
%"class.LightGBM::Metadata" = type <{ %"class.std::__cxx11::basic_string", i32, i32, i32, [4 x i8], %"class.std::vector", %"class.std::vector", %"class.std::vector.3", %"class.std::vector.8", %"class.std::vector.3", %"class.std::vector", i32, [4 x i8], i64, %"class.std::vector.13", %"class.std::vector.3", %"class.std::mutex", i8, i8, i8, i8, [4 x i8] }>
%"class.std::__cxx11::basic_string" = type { %"struct.std::__cxx11::basic_string<char>::_Alloc_hider", i64, %union.anon }
%"struct.std::__cxx11::basic_string<char>::_Alloc_hider" = type { ptr }
%union.anon = type { i64, [8 x i8] }
%"class.std::vector.8" = type { %"struct.std::_Vector_base.9" }
%"struct.std::_Vector_base.9" = type { %"struct.std::_Vector_base<std::__cxx11::basic_string<char>, std::allocator<std::__cxx11::basic_string<char>>>::_Vector_impl" }
%"struct.std::_Vector_base<std::__cxx11::basic_string<char>, std::allocator<std::__cxx11::basic_string<char>>>::_Vector_impl" = type { %"struct.std::_Vector_base<std::__cxx11::basic_string<char>, std::allocator<std::__cxx11::basic_string<char>>>::_Vector_impl_data" }
%"struct.std::_Vector_base<std::__cxx11::basic_string<char>, std::allocator<std::__cxx11::basic_string<char>>>::_Vector_impl_data" = type { ptr, ptr, ptr }
%"class.std::vector" = type { %"struct.std::_Vector_base" }
%"struct.std::_Vector_base" = type { %"struct.std::_Vector_base<float, std::allocator<float>>::_Vector_impl" }
%"struct.std::_Vector_base<float, std::allocator<float>>::_Vector_impl" = type { %"struct.std::_Vector_base<float, std::allocator<float>>::_Vector_impl_data" }
%"struct.std::_Vector_base<float, std::allocator<float>>::_Vector_impl_data" = type { ptr, ptr, ptr }
%"class.std::vector.13" = type { %"struct.std::_Vector_base.14" }
%"struct.std::_Vector_base.14" = type { %"struct.std::_Vector_base<double, std::allocator<double>>::_Vector_impl" }
%"struct.std::_Vector_base<double, std::allocator<double>>::_Vector_impl" = type { %"struct.std::_Vector_base<double, std::allocator<double>>::_Vector_impl_data" }
%"struct.std::_Vector_base<double, std::allocator<double>>::_Vector_impl_data" = type { ptr, ptr, ptr }
%"class.std::vector.3" = type { %"struct.std::_Vector_base.4" }
%"struct.std::_Vector_base.4" = type { %"struct.std::_Vector_base<int, std::allocator<int>>::_Vector_impl" }
%"struct.std::_Vector_base<int, std::allocator<int>>::_Vector_impl" = type { %"struct.std::_Vector_base<int, std::allocator<int>>::_Vector_impl_data" }
%"struct.std::_Vector_base<int, std::allocator<int>>::_Vector_impl_data" = type { ptr, ptr, ptr }
%"class.std::mutex" = type { %"class.std::__mutex_base" }
%"class.std::__mutex_base" = type { %union.pthread_mutex_t }
%union.pthread_mutex_t = type { %struct.__pthread_mutex_s }
%struct.__pthread_mutex_s = type { i32, i32, i32, i32, i32, i16, i16, %struct.__pthread_internal_list }
%struct.__pthread_internal_list = type { ptr, ptr }

@1 = private unnamed_addr constant %struct.ident_t { i32 0, i32 514, i32 0, i32 22, ptr @0 }, align 8

; Function Attrs: mustprogress nounwind uwtable
define linkonce_odr noundef zeroext i1 @_ZSt5isnand(double noundef %0) #4 comdat {
  %2 = alloca double, align 8
  store double %0, ptr %2, align 8, !tbaa !162
  %3 = load double, ptr %2, align 8, !tbaa !162
  %4 = call i1 @llvm.is.fpclass.f64(double %3, i32 3)
  ret i1 %4
}

; Function Attrs: noinline noreturn nounwind uwtable
define linkonce_odr hidden void @__clang_call_terminate(ptr noundef %0) #5 comdat {
  %2 = call ptr @__cxa_begin_catch(ptr %0) #3
  call void @_ZSt9terminatev() #25
  unreachable
}

; Function Attrs: mustprogress nounwind uwtable
define linkonce_odr noundef nonnull align 8 dereferenceable(8) ptr @_ZNSt6vectorIdSaIdEEixEm(ptr noundef nonnull align 8 dereferenceable(24) %0, i64 noundef %1) #4 comdat align 2 {
  %3 = alloca ptr, align 8
  %4 = alloca i64, align 8
  store ptr %0, ptr %3, align 8, !tbaa !54
  store i64 %1, ptr %4, align 8, !tbaa !64
  %5 = load ptr, ptr %3, align 8
  %6 = getelementptr inbounds nuw %"struct.std::_Vector_base.14", ptr %5, i32 0, i32 0
  %7 = getelementptr inbounds nuw %"struct.std::_Vector_base<double, std::allocator<double>>::_Vector_impl_data", ptr %6, i32 0, i32 0
  %8 = load ptr, ptr %7, align 8, !tbaa !113
  %9 = load i64, ptr %4, align 8, !tbaa !64
  %10 = getelementptr inbounds nuw double, ptr %8, i64 %9
  ret ptr %10
}

; Function Attrs: inlinehint mustprogress uwtable
define internal noundef double @_ZN8LightGBM6CommonL8AvoidInfEd(double noundef %0) #10 {
  %2 = alloca double, align 8
  %3 = alloca double, align 8
  store double %0, ptr %3, align 8, !tbaa !162
  %4 = load double, ptr %3, align 8, !tbaa !162
  %5 = call noundef zeroext i1 @_ZSt5isnand(double noundef %4)
  br i1 %5, label %6, label %7

6:                                                ; preds = %1
  store double 0.000000e+00, ptr %2, align 8
  br label %17

7:                                                ; preds = %1
  %8 = load double, ptr %3, align 8, !tbaa !162
  %9 = fcmp oge double %8, 1.000000e+300
  br i1 %9, label %10, label %11

10:                                               ; preds = %7
  store double 1.000000e+300, ptr %2, align 8
  br label %17

11:                                               ; preds = %7
  %12 = load double, ptr %3, align 8, !tbaa !162
  %13 = fcmp ole double %12, -1.000000e+300
  br i1 %13, label %14, label %15

14:                                               ; preds = %11
  store double -1.000000e+300, ptr %2, align 8
  br label %17

15:                                               ; preds = %11
  %16 = load double, ptr %3, align 8, !tbaa !162
  store double %16, ptr %2, align 8
  br label %17

17:                                               ; preds = %15, %14, %10, %6
  %18 = load double, ptr %2, align 8
  ret double %18
}

; Function Attrs: noinline norecurse nounwind uwtable
define internal void @_ZN8LightGBM8Metadata25SetInitScoresFromIteratorIPKdEEvT_S4_.omp_outlined(ptr noalias noundef %0, ptr noalias noundef %1, ptr noundef %2, ptr noundef nonnull align 8 dereferenceable(8) %3) #19 personality ptr @__gxx_personality_v0 {
  %5 = alloca ptr, align 8
  %6 = alloca ptr, align 8
  %7 = alloca ptr, align 8
  %8 = alloca ptr, align 8
  %9 = alloca i64, align 8
  %10 = alloca i64, align 8
  %11 = alloca i64, align 8
  %12 = alloca i64, align 8
  %13 = alloca i64, align 8
  %14 = alloca i64, align 8
  %15 = alloca i64, align 8
  %16 = alloca i32, align 4
  %17 = alloca i64, align 8
  store ptr %0, ptr %5, align 8, !tbaa !119
  store ptr %1, ptr %6, align 8, !tbaa !119
  store ptr %2, ptr %7, align 8, !tbaa !4
  store ptr %3, ptr %8, align 8, !tbaa !187
  %18 = load ptr, ptr %7, align 8, !tbaa !4
  %19 = load ptr, ptr %8, align 8, !tbaa !187
  call void @llvm.lifetime.start.p0(i64 8, ptr %9) #3
  call void @llvm.lifetime.start.p0(i64 8, ptr %10) #3
  %20 = getelementptr inbounds nuw %"class.LightGBM::Metadata", ptr %18, i32 0, i32 13
  %21 = load i64, ptr %20, align 8, !tbaa !39
  store i64 %21, ptr %10, align 8, !tbaa !64
  call void @llvm.lifetime.start.p0(i64 8, ptr %11) #3
  %22 = load i64, ptr %10, align 8, !tbaa !64
  %23 = sub nsw i64 %22, 0
  %24 = sdiv i64 %23, 1
  %25 = sub nsw i64 %24, 1
  store i64 %25, ptr %11, align 8, !tbaa !64
  call void @llvm.lifetime.start.p0(i64 8, ptr %12) #3
  store i64 0, ptr %12, align 8, !tbaa !64
  call void @llvm.lifetime.end.p0(i64 8, ptr %12) #3
  %26 = load i64, ptr %10, align 8, !tbaa !64
  %27 = icmp slt i64 0, %26
  br i1 %27, label %28, label %81

28:                                               ; preds = %4
  call void @llvm.lifetime.start.p0(i64 8, ptr %13) #3
  store i64 0, ptr %13, align 8, !tbaa !64
  call void @llvm.lifetime.start.p0(i64 8, ptr %14) #3
  %29 = load i64, ptr %11, align 8, !tbaa !64
  store i64 %29, ptr %14, align 8, !tbaa !64
  call void @llvm.lifetime.start.p0(i64 8, ptr %15) #3
  store i64 1, ptr %15, align 8, !tbaa !64
  call void @llvm.lifetime.start.p0(i64 4, ptr %16) #3
  store i32 0, ptr %16, align 4, !tbaa !103
  call void @llvm.lifetime.start.p0(i64 8, ptr %17) #3
  %30 = load ptr, ptr %5, align 8
  %31 = load i32, ptr %30, align 4, !tbaa !103
  call void @__kmpc_for_static_init_8(ptr @1, i32 %31, i32 33, ptr %16, ptr %13, ptr %14, ptr %15, i64 1, i64 512)
  br label %32

32:                                               ; preds = %71, %28
  %33 = load i64, ptr %14, align 8, !tbaa !64
  %34 = load i64, ptr %11, align 8, !tbaa !64
  %35 = icmp sgt i64 %33, %34
  br i1 %35, label %36, label %38

36:                                               ; preds = %32
  %37 = load i64, ptr %11, align 8, !tbaa !64
  br label %40

38:                                               ; preds = %32
  %39 = load i64, ptr %14, align 8, !tbaa !64
  br label %40

40:                                               ; preds = %38, %36
  %41 = phi i64 [ %37, %36 ], [ %39, %38 ]
  store i64 %41, ptr %14, align 8, !tbaa !64
  %42 = load i64, ptr %13, align 8, !tbaa !64
  store i64 %42, ptr %9, align 8, !tbaa !64
  %43 = load i64, ptr %9, align 8, !tbaa !64
  %44 = load i64, ptr %14, align 8, !tbaa !64
  %45 = icmp sle i64 %43, %44
  br i1 %45, label %47, label %46

46:                                               ; preds = %40
  br label %78

47:                                               ; preds = %40
  br label %48

48:                                               ; preds = %67, %47
  %49 = load i64, ptr %9, align 8, !tbaa !64
  %50 = load i64, ptr %14, align 8, !tbaa !64
  %51 = icmp sle i64 %49, %50
  br i1 %51, label %53, label %52

52:                                               ; preds = %48
  br label %70

53:                                               ; preds = %48
  %54 = load i64, ptr %9, align 8, !tbaa !64
  %55 = mul nsw i64 %54, 1
  %56 = add nsw i64 0, %55
  store i64 %56, ptr %17, align 8, !tbaa !64
  %57 = load ptr, ptr %19, align 8, !tbaa !123
  %58 = load i64, ptr %17, align 8, !tbaa !64
  %59 = getelementptr inbounds double, ptr %57, i64 %58
  %60 = load double, ptr %59, align 8, !tbaa !162
  %61 = invoke noundef double @_ZN8LightGBM6CommonL8AvoidInfEd(double noundef %60)
          to label %62 unwind label %82

62:                                               ; preds = %53
  %63 = getelementptr inbounds nuw %"class.LightGBM::Metadata", ptr %18, i32 0, i32 14
  %64 = load i64, ptr %17, align 8, !tbaa !64
  %65 = call noundef nonnull align 8 dereferenceable(8) ptr @_ZNSt6vectorIdSaIdEEixEm(ptr noundef nonnull align 8 dereferenceable(24) %63, i64 noundef %64) #3
  store double %61, ptr %65, align 8, !tbaa !162
  br label %66

66:                                               ; preds = %62
  br label %67

67:                                               ; preds = %66
  %68 = load i64, ptr %9, align 8, !tbaa !64
  %69 = add nsw i64 %68, 1
  store i64 %69, ptr %9, align 8, !tbaa !64
  br label %48

70:                                               ; preds = %52
  br label %71

71:                                               ; preds = %70
  %72 = load i64, ptr %13, align 8, !tbaa !64
  %73 = load i64, ptr %15, align 8, !tbaa !64
  %74 = add nsw i64 %72, %73
  store i64 %74, ptr %13, align 8, !tbaa !64
  %75 = load i64, ptr %14, align 8, !tbaa !64
  %76 = load i64, ptr %15, align 8, !tbaa !64
  %77 = add nsw i64 %75, %76
  store i64 %77, ptr %14, align 8, !tbaa !64
  br label %32

78:                                               ; preds = %46
  %79 = load ptr, ptr %5, align 8
  %80 = load i32, ptr %79, align 4, !tbaa !103
  call void @__kmpc_for_static_fini(ptr @1, i32 %80)
  call void @llvm.lifetime.end.p0(i64 8, ptr %17) #3
  call void @llvm.lifetime.end.p0(i64 4, ptr %16) #3
  call void @llvm.lifetime.end.p0(i64 8, ptr %15) #3
  call void @llvm.lifetime.end.p0(i64 8, ptr %14) #3
  call void @llvm.lifetime.end.p0(i64 8, ptr %13) #3
  br label %81

81:                                               ; preds = %78, %4
  call void @llvm.lifetime.end.p0(i64 8, ptr %11) #3
  call void @llvm.lifetime.end.p0(i64 8, ptr %10) #3
  call void @llvm.lifetime.end.p0(i64 8, ptr %9) #3
  ret void

82:                                               ; preds = %53
  %83 = landingpad { ptr, i32 }
          catch ptr null
  %84 = extractvalue { ptr, i32 } %83, 0
  call void @__clang_call_terminate(ptr %84) #25
  unreachable
}