; Function Attrs: noinline norecurse nounwind uwtable
define internal void @_ZN8LightGBM8Metadata25SetInitScoresFromIteratorIPKdEEvT_S4_.omp_outlined(ptr noalias noundef readonly captures(none) %0, ptr noalias readnone captures(none) %1, ptr noundef readonly captures(none) %2, ptr noundef nonnull readonly align 8 captures(none) dereferenceable(8) %3) #19 personality ptr @__gxx_personality_v0 {
  %5 = alloca i64, align 8
  %6 = alloca i64, align 8
  %7 = alloca i64, align 8
  %8 = alloca i32, align 4
  %9 = getelementptr inbounds nuw i8, ptr %2, i64 200
  %10 = load i64, ptr %9, align 8, !tbaa !92
  %11 = add nsw i64 %10, -1
  %12 = icmp sgt i64 %10, 0
  br i1 %12, label %13, label %36

13:                                               ; preds = %4
  call void @llvm.lifetime.start.p0(i64 8, ptr nonnull %5) #20
  store i64 0, ptr %5, align 8, !tbaa !44
  call void @llvm.lifetime.start.p0(i64 8, ptr nonnull %6) #20
  store i64 %11, ptr %6, align 8, !tbaa !44
  call void @llvm.lifetime.start.p0(i64 8, ptr nonnull %7) #20
  store i64 1, ptr %7, align 8, !tbaa !44
  call void @llvm.lifetime.start.p0(i64 4, ptr nonnull %8) #20
  store i32 0, ptr %8, align 4, !tbaa !59
  %14 = load i32, ptr %0, align 4, !tbaa !59
  call void @__kmpc_for_static_init_8(ptr nonnull @1, i32 %14, i32 33, ptr nonnull %8, ptr nonnull %5, ptr nonnull %6, ptr nonnull %7, i64 1, i64 512)
  %.promoted = load i64, ptr %6, align 8, !tbaa !44
  %.promoted17 = load i64, ptr %5, align 8, !tbaa !44
  %15 = call i64 @llvm.smin.i64(i64 %.promoted, i64 %11)
  %.not18 = icmp sgt i64 %.promoted17, %15
  br i1 %.not18, label %35, label %.preheader.lr.ph

.preheader.lr.ph:                                 ; preds = %13
  %16 = load ptr, ptr %3, align 8, !tbaa !109
  %17 = getelementptr inbounds nuw i8, ptr %2, i64 208
  %18 = load ptr, ptr %17, align 8, !tbaa !95
  %19 = load i64, ptr %7, align 8, !tbaa !44
  br label %.preheader

.preheader:                                       ; preds = %.preheader.lr.ph, %31
  %20 = phi i64 [ %15, %.preheader.lr.ph ], [ %34, %31 ]
  %21 = phi i64 [ %.promoted17, %.preheader.lr.ph ], [ %32, %31 ]
  br label %22

22:                                               ; preds = %.preheader, %_ZN8LightGBM6CommonL8AvoidInfEd.exit
  %.016 = phi i64 [ %21, %.preheader ], [ %30, %_ZN8LightGBM6CommonL8AvoidInfEd.exit ]
  %23 = getelementptr inbounds double, ptr %16, i64 %.016
  %24 = load double, ptr %23, align 8, !tbaa !93
  %25 = fcmp uno double %24, 0.000000e+00
  br i1 %25, label %_ZN8LightGBM6CommonL8AvoidInfEd.exit, label %26

26:                                               ; preds = %22
  %27 = fcmp ult double %24, 1.000000e+300
  br i1 %27, label %28, label %_ZN8LightGBM6CommonL8AvoidInfEd.exit

28:                                               ; preds = %26
  %.inv.i = fcmp ole double %24, -1.000000e+300
  %..i = select i1 %.inv.i, double -1.000000e+300, double %24
  br label %_ZN8LightGBM6CommonL8AvoidInfEd.exit

_ZN8LightGBM6CommonL8AvoidInfEd.exit:             ; preds = %28, %26, %22
  %.0.i = phi double [ 0.000000e+00, %22 ], [ 1.000000e+300, %26 ], [ %..i, %28 ]
  %29 = getelementptr inbounds nuw double, ptr %18, i64 %.016
  store double %.0.i, ptr %29, align 8, !tbaa !93
  %30 = add nsw i64 %.016, 1
  %.not15.not = icmp slt i64 %.016, %20
  br i1 %.not15.not, label %22, label %31

31:                                               ; preds = %_ZN8LightGBM6CommonL8AvoidInfEd.exit
  %32 = add nsw i64 %19, %21
  %33 = add nsw i64 %19, %20
  %34 = call i64 @llvm.smin.i64(i64 %33, i64 %11)
  %.not = icmp sgt i64 %32, %34
  br i1 %.not, label %._crit_edge, label %.preheader

._crit_edge:                                      ; preds = %31
  store i64 %32, ptr %5, align 8, !tbaa !44
  br label %35

35:                                               ; preds = %._crit_edge, %13
  %.lcssa = phi i64 [ %34, %._crit_edge ], [ %15, %13 ]
  store i64 %.lcssa, ptr %6, align 8, !tbaa !44
  call void @__kmpc_for_static_fini(ptr nonnull @1, i32 %14)
  call void @llvm.lifetime.end.p0(i64 4, ptr nonnull %8) #20
  call void @llvm.lifetime.end.p0(i64 8, ptr nonnull %7) #20
  call void @llvm.lifetime.end.p0(i64 8, ptr nonnull %6) #20
  call void @llvm.lifetime.end.p0(i64 8, ptr nonnull %5) #20
  br label %36

36:                                               ; preds = %35, %4
  ret void
}